target datalayout = "e-m:e-p270:32:32-p271:32:32-p272:64:64-i64:64-i128:128-f80:128-n8:16:32:64-S128"
target triple = "x86_64-pc-linux-gnu"

@wsApp = external global ptr, align 8

; Function Attrs: mustprogress noreturn null_pointer_is_valid sspstrong uwtable
define void @exit_application(i32 noundef %0) #3 {
  %2 = alloca i32, align 4
  store i32 %0, ptr %2, align 4
  %3 = load ptr, ptr @wsApp, align 8
  %4 = icmp ne ptr %3, null
  br i1 %4, label %5, label %6

5:                                                ; preds = %1
  call void @_ZN16QCoreApplication4quitEv()
  br label %6

6:                                                ; preds = %5, %1
  %7 = load i32, ptr %2, align 4
  call void @exit(i32 noundef %7) #18
  unreachable
}