; Function Attrs: mustprogress noreturn null_pointer_is_valid sspstrong uwtable
define void @exit_application(i32 noundef %0) local_unnamed_addr #2 {
  %2 = load ptr, ptr @wsApp, align 8
  %.not = icmp eq ptr %2, null
  br i1 %.not, label %4, label %3

3:                                                ; preds = %1
  tail call void @_ZN16QCoreApplication4quitEv()
  br label %4

4:                                                ; preds = %3, %1
  tail call void @exit(i32 noundef %0) #17
  unreachable
}